(dp0
S'password'
p1
S'goalie12'
p2
sS'm'
p3
(lp4
F0.12061103907498447
aF0.10528777946125377
aF0.12243309887972745
aF0.25052923505956476
aF0.11241684176705101
aF0.22723455862565475
aF0.08831115202470259
asS'T'
p5
(lp6
(lp7
F-0.4508265946820788
aF0.5843363653935623
aF-0.323400777244481
aF0.08463776485406099
aF-0.21045242712848528
aF0.411799172527958
aF-0.3601194205610059
aa(lp8
F0.3817573262003161
aF-0.334996851872201
aF-0.16579104615955417
aF0.5020970667417163
aF-0.5389558901561015
aF0.022326477427156276
aF-0.414099498408926
aa(lp9
F-0.4706636899108851
aF-0.0327906182991183
aF0.46852316426004614
aF0.3810651086347175
aF0.20178938407864125
aF-0.44276996470049723
aF-0.41941828371719736
aa(lp10
F0.3891083827317235
aF0.11640694883994486
aF-0.3958228031785326
aF-0.09574171980524925
aF0.6204118209957546
aF-0.15850182819848888
aF-0.5090857129686192
aasS'timings'
p11
(lp12
(lp13
F0.0
aF0.15989303588867188
aF0.31998395919799805
aF0.4560410976409912
aF0.7759530544281006
aF0.9118621349334717
aF1.1996591091156006
aF1.2957661151885986
aa(lp14
F0.0
aF0.1518850326538086
aF0.29596900939941406
aF0.43250203132629395
aF0.7114830017089844
aF0.8559038639068604
aF1.127929925918579
aF1.2551238536834717
aa(lp15
F0.0
aF0.1519320011138916
aF0.2738020420074463
aF0.4321248531341553
aF0.7519190311431885
aF0.9198439121246338
aF1.199699878692627
aF1.327692985534668
aa(lp16
F0.0
aF0.14390206336975098
aF0.27193212509155273
aF0.4318671226501465
aF0.7277729511260986
aF0.8400599956512451
aF1.1037819385528564
aF1.2158780097961426
aa(lp17
F0.0
aF0.14405298233032227
aF0.2559990882873535
aF0.41589903831481934
aF0.7359869480133057
aF0.8716230392456055
aF1.11326003074646
aF1.2076239585876465
aa(lp18
F0.0
aF0.11226892471313477
aF0.22441697120666504
aF0.3682568073272705
aF0.6402609348297119
aF0.7524058818817139
aF0.9843418598175049
aF1.0803799629211426
aa(lp19
F0.0
aF0.11194181442260742
aF0.2318739891052246
aF0.36778903007507324
aF0.616081953048706
aF0.7518258094787598
aF0.9837110042572021
aF1.063809871673584
aa(lp20
F0.0
aF0.11197018623352051
aF0.22423219680786133
aF0.36005401611328125
aF0.6078929901123047
aF0.7357120513916016
aF0.9599261283874512
aF1.0479700565338135
aa(lp21
F0.0
aF0.10373687744140625
aF0.22399091720581055
aF0.3439948558807373
aF0.5678248405456543
aF0.7038400173187256
aF0.9198977947235107
aF1.0075860023498535
aa(lp22
F0.0
aF0.1197509765625
aF0.23983216285705566
aF0.35979700088500977
aF0.6237921714782715
aF0.7278871536254883
aF0.9599230289459229
aF1.0317461490631104
aa(lp23
F0.0
aF0.13620615005493164
aF0.2239551544189453
aF0.3521270751953125
aF0.5921881198883057
aF0.7040731906890869
aF0.9199361801147461
aF0.9917261600494385
aa(lp24
F0.0
aF0.14388489723205566
aF0.2320389747619629
aF0.36789703369140625
aF0.6001460552215576
aF0.7042028903961182
aF0.90413498878479
aF0.9999170303344727
aa(lp25
F0.0
aF0.11983895301818848
aF0.22402405738830566
aF0.32804107666015625
aF0.5679230690002441
aF0.6638469696044922
aF0.8879480361938477
aF0.9540920257568359
aa(lp26
F0.0
aF0.11952090263366699
aF0.20800399780273438
aF0.3198540210723877
aF0.5519740581512451
aF0.6558668613433838
aF0.8637058734893799
aF0.9598660469055176
aa(lp27
F0.0
aF0.15162205696105957
aF0.22408604621887207
aF0.32743215560913086
aF0.5679311752319336
aF0.6718809604644775
aF0.8879420757293701
aF0.9756791591644287
aa(lp28
F0.0
aF0.09602499008178711
aF0.19987797737121582
aF0.3114030361175537
aF0.5278840065002441
aF0.6238648891448975
aF0.8238580226898193
aF0.9119200706481934
aa(lp29
F0.0
aF0.09564900398254395
aF0.19158697128295898
aF0.27994585037231445
aF0.5195679664611816
aF0.6171069145202637
aF0.8240020275115967
aF0.8799629211425781
aa(lp30
F0.0
aF0.0960390567779541
aF0.19193005561828613
aF0.2960951328277588
aF0.512078046798706
aF0.608126163482666
aF0.8079562187194824
aF0.887951135635376
aa(lp31
F0.0
aF0.10342097282409668
aF0.1758110523223877
aF0.2879140377044678
aF0.5038919448852539
aF0.5998809337615967
aF0.7997040748596191
aF0.8876099586486816
aa(lp32
F0.0
aF0.08031606674194336
aF0.16852712631225586
aF0.2563669681549072
aF0.4724290370941162
aF0.5362851619720459
aF0.7522439956665039
aF0.808366060256958
aa(lp33
F0.0
aF0.10419297218322754
aF0.1759960651397705
aF0.280040979385376
aF0.5041859149932861
aF0.6079850196838379
aF0.808027982711792
aF0.895766019821167
aa(lp34
F0.0
aF0.09539294242858887
aF0.19190406799316406
aF0.2878589630126953
aF0.49577808380126953
aF0.5840320587158203
aF0.8156859874725342
aF0.9036879539489746
aasS'stdev'
p35
(lp36
F0.01944090294558591
aF0.016385376930728644
aF0.013581399068379624
aF0.011027323212697154
as.